target datalayout = "e-m:e-p270:32:32-p271:32:32-p272:64:64-i64:64-i128:128-f80:128-n8:16:32:64-S128"
target triple = "x86_64-pc-linux-gnu"

%struct.PaUtilBufferProcessor = type { i64, i64, i32, i32, i32, i32, i64, i32, i32, i32, i32, ptr, ptr, i32, i32, i32, i32, ptr, ptr, i64, i64, ptr, ptr, i64, ptr, ptr, i64, ptr, i64, i32, [2 x i64], [2 x ptr], i32, [2 x i64], [2 x ptr], %struct.PaUtilTriangularDitherGenerator, double, ptr, ptr }
%struct.PaUtilTriangularDitherGenerator = type { i32, i32, i32 }
%struct.PaUtilChannelDescriptor = type { ptr, i32 }

; Function Attrs: nounwind uwtable
define i64 @PaUtil_EndBufferProcessing(ptr noundef %0, ptr noundef %1) #0 {
  %3 = alloca ptr, align 8
  %4 = alloca ptr, align 8
  %5 = alloca i64, align 8
  %6 = alloca i64, align 8
  %7 = alloca i64, align 8
  %8 = alloca i64, align 8
  %9 = alloca ptr, align 8
  %10 = alloca ptr, align 8
  %11 = alloca i64, align 8
  %12 = alloca ptr, align 8
  %13 = alloca ptr, align 8
  %14 = alloca i64, align 8
  store ptr %0, ptr %3, align 8
  store ptr %1, ptr %4, align 8
  store i64 0, ptr %7, align 8
  %15 = load ptr, ptr %3, align 8
  %16 = getelementptr inbounds nuw %struct.PaUtilBufferProcessor, ptr %15, i32 0, i32 7
  %17 = load i32, ptr %16, align 8
  %18 = icmp ne i32 %17, 0
  br i1 %18, label %19, label %43

19:                                               ; preds = %2
  %20 = load ptr, ptr %3, align 8
  %21 = getelementptr inbounds nuw %struct.PaUtilBufferProcessor, ptr %20, i32 0, i32 13
  %22 = load i32, ptr %21, align 8
  %23 = icmp ne i32 %22, 0
  br i1 %23, label %24, label %43

24:                                               ; preds = %19
  %25 = load ptr, ptr %3, align 8
  %26 = getelementptr inbounds nuw %struct.PaUtilBufferProcessor, ptr %25, i32 0, i32 31
  %27 = getelementptr inbounds [2 x ptr], ptr %26, i64 0, i64 0
  %28 = load ptr, ptr %27, align 8
  %29 = getelementptr inbounds %struct.PaUtilChannelDescriptor, ptr %28, i64 0
  %30 = getelementptr inbounds nuw %struct.PaUtilChannelDescriptor, ptr %29, i32 0, i32 0
  %31 = load ptr, ptr %30, align 8
  %32 = icmp ne ptr %31, null
  br i1 %32, label %33, label %43

33:                                               ; preds = %24
  %34 = load ptr, ptr %3, align 8
  %35 = getelementptr inbounds nuw %struct.PaUtilBufferProcessor, ptr %34, i32 0, i32 34
  %36 = getelementptr inbounds [2 x ptr], ptr %35, i64 0, i64 0
  %37 = load ptr, ptr %36, align 8
  %38 = getelementptr inbounds %struct.PaUtilChannelDescriptor, ptr %37, i64 0
  %39 = getelementptr inbounds nuw %struct.PaUtilChannelDescriptor, ptr %38, i32 0, i32 0
  %40 = load ptr, ptr %39, align 8
  %41 = icmp ne ptr %40, null
  br i1 %41, label %42, label %43

42:                                               ; preds = %33
  br label %43

43:                                               ; preds = %42, %33, %24, %19, %2
  %44 = load ptr, ptr %3, align 8
  %45 = getelementptr inbounds nuw %struct.PaUtilBufferProcessor, ptr %44, i32 0, i32 3
  %46 = load i32, ptr %45, align 4
  %47 = icmp ne i32 %46, 0
  br i1 %47, label %48, label %237

48:                                               ; preds = %43
  %49 = load ptr, ptr %3, align 8
  %50 = getelementptr inbounds nuw %struct.PaUtilBufferProcessor, ptr %49, i32 0, i32 7
  %51 = load i32, ptr %50, align 8
  %52 = icmp ne i32 %51, 0
  br i1 %52, label %53, label %173

53:                                               ; preds = %48
  %54 = load ptr, ptr %3, align 8
  %55 = getelementptr inbounds nuw %struct.PaUtilBufferProcessor, ptr %54, i32 0, i32 13
  %56 = load i32, ptr %55, align 8
  %57 = icmp ne i32 %56, 0
  br i1 %57, label %58, label %173

58:                                               ; preds = %53
  %59 = load ptr, ptr %3, align 8
  %60 = getelementptr inbounds nuw %struct.PaUtilBufferProcessor, ptr %59, i32 0, i32 33
  %61 = getelementptr inbounds [2 x i64], ptr %60, i64 0, i64 0
  %62 = load i64, ptr %61, align 8
  %63 = load ptr, ptr %3, align 8
  %64 = getelementptr inbounds nuw %struct.PaUtilBufferProcessor, ptr %63, i32 0, i32 33
  %65 = getelementptr inbounds [2 x i64], ptr %64, i64 0, i64 1
  %66 = load i64, ptr %65, align 8
  %67 = add i64 %62, %66
  store i64 %67, ptr %6, align 8
  br label %68

68:                                               ; preds = %169, %58
  %69 = load ptr, ptr %3, align 8
  %70 = getelementptr inbounds nuw %struct.PaUtilBufferProcessor, ptr %69, i32 0, i32 31
  %71 = getelementptr inbounds [2 x ptr], ptr %70, i64 0, i64 0
  %72 = load ptr, ptr %71, align 8
  %73 = getelementptr inbounds %struct.PaUtilChannelDescriptor, ptr %72, i64 0
  %74 = getelementptr inbounds nuw %struct.PaUtilChannelDescriptor, ptr %73, i32 0, i32 0
  %75 = load ptr, ptr %74, align 8
  %76 = icmp ne ptr %75, null
  br i1 %76, label %79, label %77

77:                                               ; preds = %68
  %78 = load i64, ptr %6, align 8
  store i64 %78, ptr %8, align 8
  store ptr %8, ptr %9, align 8
  store ptr null, ptr %10, align 8
  br label %102

79:                                               ; preds = %68
  %80 = load ptr, ptr %3, align 8
  %81 = getelementptr inbounds nuw %struct.PaUtilBufferProcessor, ptr %80, i32 0, i32 30
  %82 = getelementptr inbounds [2 x i64], ptr %81, i64 0, i64 0
  %83 = load i64, ptr %82, align 8
  %84 = icmp ne i64 %83, 0
  br i1 %84, label %85, label %93

85:                                               ; preds = %79
  %86 = load ptr, ptr %3, align 8
  %87 = getelementptr inbounds nuw %struct.PaUtilBufferProcessor, ptr %86, i32 0, i32 30
  %88 = getelementptr inbounds [2 x i64], ptr %87, i64 0, i64 0
  store ptr %88, ptr %9, align 8
  %89 = load ptr, ptr %3, align 8
  %90 = getelementptr inbounds nuw %struct.PaUtilBufferProcessor, ptr %89, i32 0, i32 31
  %91 = getelementptr inbounds [2 x ptr], ptr %90, i64 0, i64 0
  %92 = load ptr, ptr %91, align 8
  store ptr %92, ptr %10, align 8
  br label %101

93:                                               ; preds = %79
  %94 = load ptr, ptr %3, align 8
  %95 = getelementptr inbounds nuw %struct.PaUtilBufferProcessor, ptr %94, i32 0, i32 30
  %96 = getelementptr inbounds [2 x i64], ptr %95, i64 0, i64 1
  store ptr %96, ptr %9, align 8
  %97 = load ptr, ptr %3, align 8
  %98 = getelementptr inbounds nuw %struct.PaUtilBufferProcessor, ptr %97, i32 0, i32 31
  %99 = getelementptr inbounds [2 x ptr], ptr %98, i64 0, i64 1
  %100 = load ptr, ptr %99, align 8
  store ptr %100, ptr %10, align 8
  br label %101

101:                                              ; preds = %93, %85
  br label %102

102:                                              ; preds = %101, %77
  %103 = load ptr, ptr %3, align 8
  %104 = getelementptr inbounds nuw %struct.PaUtilBufferProcessor, ptr %103, i32 0, i32 34
  %105 = getelementptr inbounds [2 x ptr], ptr %104, i64 0, i64 0
  %106 = load ptr, ptr %105, align 8
  %107 = getelementptr inbounds %struct.PaUtilChannelDescriptor, ptr %106, i64 0
  %108 = getelementptr inbounds nuw %struct.PaUtilChannelDescriptor, ptr %107, i32 0, i32 0
  %109 = load ptr, ptr %108, align 8
  %110 = icmp ne ptr %109, null
  br i1 %110, label %113, label %111

111:                                              ; preds = %102
  %112 = load i64, ptr %6, align 8
  store i64 %112, ptr %11, align 8
  store ptr %11, ptr %12, align 8
  store ptr null, ptr %13, align 8
  br label %113

113:                                              ; preds = %111, %102
  %114 = load ptr, ptr %3, align 8
  %115 = getelementptr inbounds nuw %struct.PaUtilBufferProcessor, ptr %114, i32 0, i32 33
  %116 = getelementptr inbounds [2 x i64], ptr %115, i64 0, i64 0
  %117 = load i64, ptr %116, align 8
  %118 = icmp ne i64 %117, 0
  br i1 %118, label %119, label %127

119:                                              ; preds = %113
  %120 = load ptr, ptr %3, align 8
  %121 = getelementptr inbounds nuw %struct.PaUtilBufferProcessor, ptr %120, i32 0, i32 33
  %122 = getelementptr inbounds [2 x i64], ptr %121, i64 0, i64 0
  store ptr %122, ptr %12, align 8
  %123 = load ptr, ptr %3, align 8
  %124 = getelementptr inbounds nuw %struct.PaUtilBufferProcessor, ptr %123, i32 0, i32 34
  %125 = getelementptr inbounds [2 x ptr], ptr %124, i64 0, i64 0
  %126 = load ptr, ptr %125, align 8
  store ptr %126, ptr %13, align 8
  br label %135

127:                                              ; preds = %113
  %128 = load ptr, ptr %3, align 8
  %129 = getelementptr inbounds nuw %struct.PaUtilBufferProcessor, ptr %128, i32 0, i32 33
  %130 = getelementptr inbounds [2 x i64], ptr %129, i64 0, i64 1
  store ptr %130, ptr %12, align 8
  %131 = load ptr, ptr %3, align 8
  %132 = getelementptr inbounds nuw %struct.PaUtilBufferProcessor, ptr %131, i32 0, i32 34
  %133 = getelementptr inbounds [2 x ptr], ptr %132, i64 0, i64 1
  %134 = load ptr, ptr %133, align 8
  store ptr %134, ptr %13, align 8
  br label %135

135:                                              ; preds = %127, %119
  %136 = load ptr, ptr %9, align 8
  %137 = load i64, ptr %136, align 8
  %138 = load ptr, ptr %12, align 8
  %139 = load i64, ptr %138, align 8
  %140 = icmp ult i64 %137, %139
  br i1 %140, label %141, label %144

141:                                              ; preds = %135
  %142 = load ptr, ptr %9, align 8
  %143 = load i64, ptr %142, align 8
  br label %147

144:                                              ; preds = %135
  %145 = load ptr, ptr %12, align 8
  %146 = load i64, ptr %145, align 8
  br label %147

147:                                              ; preds = %144, %141
  %148 = phi i64 [ %143, %141 ], [ %146, %144 ]
  store i64 %148, ptr %5, align 8
  %149 = load ptr, ptr %3, align 8
  %150 = load ptr, ptr %4, align 8
  %151 = load ptr, ptr %10, align 8
  %152 = load ptr, ptr %13, align 8
  %153 = load i64, ptr %5, align 8
  %154 = call i64 @NonAdaptingProcess(ptr noundef %149, ptr noundef %150, ptr noundef %151, ptr noundef %152, i64 noundef %153)
  store i64 %154, ptr %14, align 8
  %155 = load i64, ptr %14, align 8
  %156 = load ptr, ptr %9, align 8
  %157 = load i64, ptr %156, align 8
  %158 = sub i64 %157, %155
  store i64 %158, ptr %156, align 8
  %159 = load i64, ptr %14, align 8
  %160 = load ptr, ptr %12, align 8
  %161 = load i64, ptr %160, align 8
  %162 = sub i64 %161, %159
  store i64 %162, ptr %160, align 8
  %163 = load i64, ptr %14, align 8
  %164 = load i64, ptr %7, align 8
  %165 = add i64 %164, %163
  store i64 %165, ptr %7, align 8
  %166 = load i64, ptr %14, align 8
  %167 = load i64, ptr %6, align 8
  %168 = sub i64 %167, %166
  store i64 %168, ptr %6, align 8
  br label %169

169:                                              ; preds = %147
  %170 = load i64, ptr %6, align 8
  %171 = icmp ugt i64 %170, 0
  br i1 %171, label %68, label %172, !llvm.loop !10

172:                                              ; preds = %169
  br label %236

173:                                              ; preds = %53, %48
  %174 = load ptr, ptr %3, align 8
  %175 = getelementptr inbounds nuw %struct.PaUtilBufferProcessor, ptr %174, i32 0, i32 7
  %176 = load i32, ptr %175, align 8
  %177 = icmp ne i32 %176, 0
  br i1 %177, label %178, label %183

178:                                              ; preds = %173
  %179 = load ptr, ptr %3, align 8
  %180 = getelementptr inbounds nuw %struct.PaUtilBufferProcessor, ptr %179, i32 0, i32 30
  %181 = getelementptr inbounds [2 x i64], ptr %180, i64 0, i64 0
  %182 = load i64, ptr %181, align 8
  br label %188

183:                                              ; preds = %173
  %184 = load ptr, ptr %3, align 8
  %185 = getelementptr inbounds nuw %struct.PaUtilBufferProcessor, ptr %184, i32 0, i32 33
  %186 = getelementptr inbounds [2 x i64], ptr %185, i64 0, i64 0
  %187 = load i64, ptr %186, align 8
  br label %188

188:                                              ; preds = %183, %178
  %189 = phi i64 [ %182, %178 ], [ %187, %183 ]
  store i64 %189, ptr %5, align 8
  %190 = load ptr, ptr %3, align 8
  %191 = load ptr, ptr %4, align 8
  %192 = load ptr, ptr %3, align 8
  %193 = getelementptr inbounds nuw %struct.PaUtilBufferProcessor, ptr %192, i32 0, i32 31
  %194 = getelementptr inbounds [2 x ptr], ptr %193, i64 0, i64 0
  %195 = load ptr, ptr %194, align 8
  %196 = load ptr, ptr %3, align 8
  %197 = getelementptr inbounds nuw %struct.PaUtilBufferProcessor, ptr %196, i32 0, i32 34
  %198 = getelementptr inbounds [2 x ptr], ptr %197, i64 0, i64 0
  %199 = load ptr, ptr %198, align 8
  %200 = load i64, ptr %5, align 8
  %201 = call i64 @NonAdaptingProcess(ptr noundef %190, ptr noundef %191, ptr noundef %195, ptr noundef %199, i64 noundef %200)
  store i64 %201, ptr %7, align 8
  %202 = load ptr, ptr %3, align 8
  %203 = getelementptr inbounds nuw %struct.PaUtilBufferProcessor, ptr %202, i32 0, i32 7
  %204 = load i32, ptr %203, align 8
  %205 = icmp ne i32 %204, 0
  br i1 %205, label %206, label %211

206:                                              ; preds = %188
  %207 = load ptr, ptr %3, align 8
  %208 = getelementptr inbounds nuw %struct.PaUtilBufferProcessor, ptr %207, i32 0, i32 30
  %209 = getelementptr inbounds [2 x i64], ptr %208, i64 0, i64 1
  %210 = load i64, ptr %209, align 8
  br label %216

211:                                              ; preds = %188
  %212 = load ptr, ptr %3, align 8
  %213 = getelementptr inbounds nuw %struct.PaUtilBufferProcessor, ptr %212, i32 0, i32 33
  %214 = getelementptr inbounds [2 x i64], ptr %213, i64 0, i64 1
  %215 = load i64, ptr %214, align 8
  br label %216

216:                                              ; preds = %211, %206
  %217 = phi i64 [ %210, %206 ], [ %215, %211 ]
  store i64 %217, ptr %5, align 8
  %218 = load i64, ptr %5, align 8
  %219 = icmp ugt i64 %218, 0
  br i1 %219, label %220, label %235

220:                                              ; preds = %216
  %221 = load ptr, ptr %3, align 8
  %222 = load ptr, ptr %4, align 8
  %223 = load ptr, ptr %3, align 8
  %224 = getelementptr inbounds nuw %struct.PaUtilBufferProcessor, ptr %223, i32 0, i32 31
  %225 = getelementptr inbounds [2 x ptr], ptr %224, i64 0, i64 1
  %226 = load ptr, ptr %225, align 8
  %227 = load ptr, ptr %3, align 8
  %228 = getelementptr inbounds nuw %struct.PaUtilBufferProcessor, ptr %227, i32 0, i32 34
  %229 = getelementptr inbounds [2 x ptr], ptr %228, i64 0, i64 1
  %230 = load ptr, ptr %229, align 8
  %231 = load i64, ptr %5, align 8
  %232 = call i64 @NonAdaptingProcess(ptr noundef %221, ptr noundef %222, ptr noundef %226, ptr noundef %230, i64 noundef %231)
  %233 = load i64, ptr %7, align 8
  %234 = add i64 %233, %232
  store i64 %234, ptr %7, align 8
  br label %235

235:                                              ; preds = %220, %216
  br label %236

236:                                              ; preds = %235, %172
  br label %330

237:                                              ; preds = %43
  %238 = load ptr, ptr %3, align 8
  %239 = getelementptr inbounds nuw %struct.PaUtilBufferProcessor, ptr %238, i32 0, i32 7
  %240 = load i32, ptr %239, align 8
  %241 = icmp ne i32 %240, 0
  br i1 %241, label %242, label %261

242:                                              ; preds = %237
  %243 = load ptr, ptr %3, align 8
  %244 = getelementptr inbounds nuw %struct.PaUtilBufferProcessor, ptr %243, i32 0, i32 13
  %245 = load i32, ptr %244, align 8
  %246 = icmp ne i32 %245, 0
  br i1 %246, label %247, label %261

247:                                              ; preds = %242
  %248 = load ptr, ptr %3, align 8
  %249 = getelementptr inbounds nuw %struct.PaUtilBufferProcessor, ptr %248, i32 0, i32 2
  %250 = load i32, ptr %249, align 8
  %251 = icmp eq i32 %250, 3
  br i1 %251, label %252, label %256

252:                                              ; preds = %247
  %253 = load ptr, ptr %3, align 8
  %254 = load ptr, ptr %4, align 8
  %255 = call i64 @AdaptingProcess(ptr noundef %253, ptr noundef %254, i32 noundef 0)
  store i64 %255, ptr %7, align 8
  br label %260

256:                                              ; preds = %247
  %257 = load ptr, ptr %3, align 8
  %258 = load ptr, ptr %4, align 8
  %259 = call i64 @AdaptingProcess(ptr noundef %257, ptr noundef %258, i32 noundef 1)
  store i64 %259, ptr %7, align 8
  br label %260

260:                                              ; preds = %256, %252
  br label %329

261:                                              ; preds = %242, %237
  %262 = load ptr, ptr %3, align 8
  %263 = getelementptr inbounds nuw %struct.PaUtilBufferProcessor, ptr %262, i32 0, i32 7
  %264 = load i32, ptr %263, align 8
  %265 = icmp ne i32 %264, 0
  br i1 %265, label %266, label %297

266:                                              ; preds = %261
  %267 = load ptr, ptr %3, align 8
  %268 = getelementptr inbounds nuw %struct.PaUtilBufferProcessor, ptr %267, i32 0, i32 30
  %269 = getelementptr inbounds [2 x i64], ptr %268, i64 0, i64 0
  %270 = load i64, ptr %269, align 8
  store i64 %270, ptr %5, align 8
  %271 = load ptr, ptr %3, align 8
  %272 = load ptr, ptr %4, align 8
  %273 = load ptr, ptr %3, align 8
  %274 = getelementptr inbounds nuw %struct.PaUtilBufferProcessor, ptr %273, i32 0, i32 31
  %275 = getelementptr inbounds [2 x ptr], ptr %274, i64 0, i64 0
  %276 = load ptr, ptr %275, align 8
  %277 = load i64, ptr %5, align 8
  %278 = call i64 @AdaptingInputOnlyProcess(ptr noundef %271, ptr noundef %272, ptr noundef %276, i64 noundef %277)
  store i64 %278, ptr %7, align 8
  %279 = load ptr, ptr %3, align 8
  %280 = getelementptr inbounds nuw %struct.PaUtilBufferProcessor, ptr %279, i32 0, i32 30
  %281 = getelementptr inbounds [2 x i64], ptr %280, i64 0, i64 1
  %282 = load i64, ptr %281, align 8
  store i64 %282, ptr %5, align 8
  %283 = load i64, ptr %5, align 8
  %284 = icmp ugt i64 %283, 0
  br i1 %284, label %285, label %296

285:                                              ; preds = %266
  %286 = load ptr, ptr %3, align 8
  %287 = load ptr, ptr %4, align 8
  %288 = load ptr, ptr %3, align 8
  %289 = getelementptr inbounds nuw %struct.PaUtilBufferProcessor, ptr %288, i32 0, i32 31
  %290 = getelementptr inbounds [2 x ptr], ptr %289, i64 0, i64 1
  %291 = load ptr, ptr %290, align 8
  %292 = load i64, ptr %5, align 8
  %293 = call i64 @AdaptingInputOnlyProcess(ptr noundef %286, ptr noundef %287, ptr noundef %291, i64 noundef %292)
  %294 = load i64, ptr %7, align 8
  %295 = add i64 %294, %293
  store i64 %295, ptr %7, align 8
  br label %296

296:                                              ; preds = %285, %266
  br label %328

297:                                              ; preds = %261
  %298 = load ptr, ptr %3, align 8
  %299 = getelementptr inbounds nuw %struct.PaUtilBufferProcessor, ptr %298, i32 0, i32 33
  %300 = getelementptr inbounds [2 x i64], ptr %299, i64 0, i64 0
  %301 = load i64, ptr %300, align 8
  store i64 %301, ptr %5, align 8
  %302 = load ptr, ptr %3, align 8
  %303 = load ptr, ptr %4, align 8
  %304 = load ptr, ptr %3, align 8
  %305 = getelementptr inbounds nuw %struct.PaUtilBufferProcessor, ptr %304, i32 0, i32 34
  %306 = getelementptr inbounds [2 x ptr], ptr %305, i64 0, i64 0
  %307 = load ptr, ptr %306, align 8
  %308 = load i64, ptr %5, align 8
  %309 = call i64 @AdaptingOutputOnlyProcess(ptr noundef %302, ptr noundef %303, ptr noundef %307, i64 noundef %308)
  store i64 %309, ptr %7, align 8
  %310 = load ptr, ptr %3, align 8
  %311 = getelementptr inbounds nuw %struct.PaUtilBufferProcessor, ptr %310, i32 0, i32 33
  %312 = getelementptr inbounds [2 x i64], ptr %311, i64 0, i64 1
  %313 = load i64, ptr %312, align 8
  store i64 %313, ptr %5, align 8
  %314 = load i64, ptr %5, align 8
  %315 = icmp ugt i64 %314, 0
  br i1 %315, label %316, label %327

316:                                              ; preds = %297
  %317 = load ptr, ptr %3, align 8
  %318 = load ptr, ptr %4, align 8
  %319 = load ptr, ptr %3, align 8
  %320 = getelementptr inbounds nuw %struct.PaUtilBufferProcessor, ptr %319, i32 0, i32 34
  %321 = getelementptr inbounds [2 x ptr], ptr %320, i64 0, i64 1
  %322 = load ptr, ptr %321, align 8
  %323 = load i64, ptr %5, align 8
  %324 = call i64 @AdaptingOutputOnlyProcess(ptr noundef %317, ptr noundef %318, ptr noundef %322, i64 noundef %323)
  %325 = load i64, ptr %7, align 8
  %326 = add i64 %325, %324
  store i64 %326, ptr %7, align 8
  br label %327

327:                                              ; preds = %316, %297
  br label %328

328:                                              ; preds = %327, %296
  br label %329

329:                                              ; preds = %328, %260
  br label %330

330:                                              ; preds = %329, %236
  %331 = load i64, ptr %7, align 8
  ret i64 %331
}