; Function Attrs: nounwind uwtable
define i64 @PaUtil_EndBufferProcessing(ptr noundef %0, ptr nocapture noundef %1) local_unnamed_addr #0 {
  %3 = alloca i64, align 8
  %4 = getelementptr inbounds nuw i8, ptr %0, i64 40
  %5 = load i32, ptr %4, align 8
  %6 = getelementptr inbounds nuw i8, ptr %0, i64 20
  %7 = load i32, ptr %6, align 4
  %.not = icmp eq i32 %7, 0
  %.not99 = icmp eq i32 %5, 0
  br i1 %.not, label %58, label %8

8:                                                ; preds = %2
  br i1 %.not99, label %42, label %9

9:                                                ; preds = %8
  %10 = getelementptr inbounds nuw i8, ptr %0, i64 72
  %11 = load i32, ptr %10, align 8
  %.not105 = icmp eq i32 %11, 0
  br i1 %.not105, label %42, label %12

12:                                               ; preds = %9
  %13 = getelementptr inbounds nuw i8, ptr %0, i64 232
  %14 = load i64, ptr %13, align 8
  %15 = getelementptr inbounds i8, ptr %0, i64 240
  %16 = load i64, ptr %15, align 8
  %17 = add i64 %16, %14
  %18 = getelementptr inbounds nuw i8, ptr %0, i64 208
  %19 = getelementptr inbounds nuw i8, ptr %0, i64 192
  %20 = getelementptr inbounds i8, ptr %0, i64 200
  %21 = getelementptr inbounds i8, ptr %0, i64 216
  br label %22

22:                                               ; preds = %30, %12
  %.092 = phi i64 [ %17, %12 ], [ %41, %30 ]
  %.091 = phi i64 [ 0, %12 ], [ %40, %30 ]
  %23 = load ptr, ptr %18, align 8
  %24 = load ptr, ptr %23, align 8
  %.not110 = icmp eq ptr %24, null
  br i1 %.not110, label %25, label %26

25:                                               ; preds = %22
  store i64 %.092, ptr %3, align 8
  br label %30

26:                                               ; preds = %22
  %27 = load i64, ptr %19, align 8
  %.not111 = icmp eq i64 %27, 0
  br i1 %.not111, label %28, label %30

28:                                               ; preds = %26
  %29 = load ptr, ptr %21, align 8
  %.pre = load i64, ptr %20, align 8
  br label %30

30:                                               ; preds = %26, %28, %25
  %31 = phi i64 [ %.pre, %28 ], [ %.092, %25 ], [ %27, %26 ]
  %.090 = phi ptr [ %20, %28 ], [ %3, %25 ], [ %19, %26 ]
  %.089 = phi ptr [ %29, %28 ], [ null, %25 ], [ %23, %26 ]
  %32 = load i64, ptr %13, align 8
  %.not113 = icmp eq i64 %32, 0
  %.088 = select i1 %.not113, ptr %15, ptr %13
  %.0.in.v = select i1 %.not113, i64 256, i64 248
  %.0.in = getelementptr inbounds i8, ptr %0, i64 %.0.in.v
  %.0 = load ptr, ptr %.0.in, align 8
  %33 = load i64, ptr %.088, align 8
  %34 = tail call i64 @llvm.umin.i64(i64 %31, i64 %33)
  %35 = tail call fastcc i64 @NonAdaptingProcess(ptr noundef nonnull %0, ptr noundef %1, ptr noundef %.089, ptr noundef %.0, i64 noundef %34)
  %36 = load i64, ptr %.090, align 8
  %37 = sub i64 %36, %35
  store i64 %37, ptr %.090, align 8
  %38 = load i64, ptr %.088, align 8
  %39 = sub i64 %38, %35
  store i64 %39, ptr %.088, align 8
  %40 = add i64 %35, %.091
  %41 = sub i64 %.092, %35
  %.not114 = icmp eq i64 %41, 0
  br i1 %.not114, label %.loopexit, label %22, !llvm.loop !10

42:                                               ; preds = %9, %8
  %.in.v = phi i64 [ 192, %9 ], [ 232, %8 ]
  %.in = getelementptr inbounds nuw i8, ptr %0, i64 %.in.v
  %43 = load i64, ptr %.in, align 8
  %44 = getelementptr inbounds nuw i8, ptr %0, i64 208
  %45 = load ptr, ptr %44, align 8
  %46 = getelementptr inbounds nuw i8, ptr %0, i64 248
  %47 = load ptr, ptr %46, align 8
  %48 = tail call fastcc i64 @NonAdaptingProcess(ptr noundef nonnull %0, ptr noundef %1, ptr noundef %45, ptr noundef %47, i64 noundef %43)
  %49 = load i32, ptr %4, align 8
  %.not107 = icmp eq i32 %49, 0
  %.in108.v = select i1 %.not107, i64 240, i64 200
  %.in108 = getelementptr inbounds i8, ptr %0, i64 %.in108.v
  %50 = load i64, ptr %.in108, align 8
  %.not109 = icmp eq i64 %50, 0
  br i1 %.not109, label %.loopexit, label %51

51:                                               ; preds = %42
  %52 = getelementptr inbounds i8, ptr %0, i64 216
  %53 = load ptr, ptr %52, align 8
  %54 = getelementptr inbounds i8, ptr %0, i64 256
  %55 = load ptr, ptr %54, align 8
  %56 = tail call fastcc i64 @NonAdaptingProcess(ptr noundef nonnull %0, ptr noundef %1, ptr noundef %53, ptr noundef %55, i64 noundef %50)
  %57 = add i64 %56, %48
  br label %.loopexit

58:                                               ; preds = %2
  br i1 %.not99, label %83, label %59

59:                                               ; preds = %58
  %60 = getelementptr inbounds nuw i8, ptr %0, i64 72
  %61 = load i32, ptr %60, align 8
  %.not100 = icmp eq i32 %61, 0
  br i1 %.not100, label %70, label %62

62:                                               ; preds = %59
  %63 = getelementptr inbounds nuw i8, ptr %0, i64 16
  %64 = load i32, ptr %63, align 8
  %65 = icmp eq i32 %64, 3
  br i1 %65, label %66, label %68

66:                                               ; preds = %62
  %67 = tail call fastcc i64 @AdaptingProcess(ptr noundef nonnull %0, ptr noundef %1, i32 noundef 0)
  br label %.loopexit

68:                                               ; preds = %62
  %69 = tail call fastcc i64 @AdaptingProcess(ptr noundef nonnull %0, ptr noundef %1, i32 noundef 1)
  br label %.loopexit

70:                                               ; preds = %59
  %71 = getelementptr inbounds nuw i8, ptr %0, i64 192
  %72 = load i64, ptr %71, align 8
  %73 = getelementptr inbounds nuw i8, ptr %0, i64 208
  %74 = load ptr, ptr %73, align 8
  %75 = tail call fastcc i64 @AdaptingInputOnlyProcess(ptr noundef nonnull %0, ptr noundef %1, ptr noundef %74, i64 noundef %72)
  %76 = getelementptr inbounds i8, ptr %0, i64 200
  %77 = load i64, ptr %76, align 8
  %.not103 = icmp eq i64 %77, 0
  br i1 %.not103, label %.loopexit, label %78

78:                                               ; preds = %70
  %79 = getelementptr inbounds i8, ptr %0, i64 216
  %80 = load ptr, ptr %79, align 8
  %81 = tail call fastcc i64 @AdaptingInputOnlyProcess(ptr noundef nonnull %0, ptr noundef %1, ptr noundef %80, i64 noundef %77)
  %82 = add i64 %81, %75
  br label %.loopexit

83:                                               ; preds = %58
  %84 = getelementptr inbounds nuw i8, ptr %0, i64 232
  %85 = load i64, ptr %84, align 8
  %86 = getelementptr inbounds nuw i8, ptr %0, i64 248
  %87 = load ptr, ptr %86, align 8
  %88 = tail call fastcc i64 @AdaptingOutputOnlyProcess(ptr noundef nonnull %0, ptr noundef %1, ptr noundef %87, i64 noundef %85)
  %89 = getelementptr inbounds i8, ptr %0, i64 240
  %90 = load i64, ptr %89, align 8
  %.not102 = icmp eq i64 %90, 0
  br i1 %.not102, label %.loopexit, label %91

91:                                               ; preds = %83
  %92 = getelementptr inbounds i8, ptr %0, i64 256
  %93 = load ptr, ptr %92, align 8
  %94 = tail call fastcc i64 @AdaptingOutputOnlyProcess(ptr noundef nonnull %0, ptr noundef %1, ptr noundef %93, i64 noundef %90)
  %95 = add i64 %94, %88
  br label %.loopexit

.loopexit:                                        ; preds = %30, %68, %66, %83, %91, %70, %78, %51, %42
  %.1 = phi i64 [ %57, %51 ], [ %48, %42 ], [ %67, %66 ], [ %69, %68 ], [ %82, %78 ], [ %75, %70 ], [ %95, %91 ], [ %88, %83 ], [ %40, %30 ]
  ret i64 %.1
}